target datalayout = "e-m:e-p270:32:32-p271:32:32-p272:64:64-i64:64-i128:128-f80:128-n8:16:32:64-S128"
target triple = "x86_64-unknown-linux-gnu"

%"class.icu_75::TimeUnit" = type { %"class.icu_75::MeasureUnit.base", i32 }
%"class.icu_75::MeasureUnit.base" = type <{ %"class.icu_75::UObject", ptr, i16, i8 }>
%"class.icu_75::UObject" = type { ptr }

; Function Attrs: mustprogress uwtable
define noundef nonnull align 8 dereferenceable(24) ptr @_ZN6icu_758TimeUnitaSERKS0_(ptr noundef nonnull align 8 dereferenceable(24) %this, ptr noundef nonnull align 8 dereferenceable(24) %other) #1 align 2 {
entry:
  %retval = alloca ptr, align 8
  %this.addr = alloca ptr, align 8
  %other.addr = alloca ptr, align 8
  store ptr %this, ptr %this.addr, align 8
  store ptr %other, ptr %other.addr, align 8
  %this1 = load ptr, ptr %this.addr, align 8
  %0 = load ptr, ptr %other.addr, align 8
  %cmp = icmp eq ptr %this1, %0
  br i1 %cmp, label %if.then, label %if.end

if.then:                                          ; preds = %entry
  store ptr %this1, ptr %retval, align 8
  br label %return

if.end:                                           ; preds = %entry
  %1 = load ptr, ptr %other.addr, align 8
  %call = call noundef nonnull align 8 dereferenceable(19) ptr @_ZN6icu_7511MeasureUnitaSERKS0_(ptr noundef nonnull align 8 dereferenceable(19) %this1, ptr noundef nonnull align 8 dereferenceable(19) %1)
  %2 = load ptr, ptr %other.addr, align 8
  %fTimeUnitField = getelementptr inbounds %"class.icu_75::TimeUnit", ptr %2, i32 0, i32 1
  %3 = load i32, ptr %fTimeUnitField, align 4
  %fTimeUnitField2 = getelementptr inbounds %"class.icu_75::TimeUnit", ptr %this1, i32 0, i32 1
  store i32 %3, ptr %fTimeUnitField2, align 4
  store ptr %this1, ptr %retval, align 8
  br label %return

return:                                           ; preds = %if.end, %if.then
  %4 = load ptr, ptr %retval, align 8
  ret ptr %4
}