; Function Attrs: mustprogress uwtable
define noundef nonnull align 8 dereferenceable(24) ptr @_ZN6icu_758TimeUnitaSERKS0_(ptr noundef nonnull returned align 8 dereferenceable(24) %this, ptr noundef nonnull align 8 dereferenceable(24) %other) local_unnamed_addr #1 align 2 {
entry:
  %cmp = icmp eq ptr %this, %other
  br i1 %cmp, label %return, label %if.end

if.end:                                           ; preds = %entry
  %call = tail call noundef nonnull align 8 dereferenceable(19) ptr @_ZN6icu_7511MeasureUnitaSERKS0_(ptr noundef nonnull align 8 dereferenceable(19) %this, ptr noundef nonnull align 8 dereferenceable(19) %other)
  %fTimeUnitField = getelementptr inbounds i8, ptr %other, i64 20
  %0 = load i32, ptr %fTimeUnitField, align 4
  %fTimeUnitField2 = getelementptr inbounds i8, ptr %this, i64 20
  store i32 %0, ptr %fTimeUnitField2, align 4
  br label %return

return:                                           ; preds = %entry, %if.end
  ret ptr %this
}